target datalayout = "e-m:e-p270:32:32-p271:32:32-p272:64:64-i64:64-i128:128-f80:128-n8:16:32:64-S128"
target triple = "x86_64-pc-linux-gnu"

%struct.reftable_merged_table = type { ptr, i64, i32, i32, i64, i64 }

; Function Attrs: nounwind uwtable
define dso_local i32 @reftable_merged_table_new(ptr noundef %0, ptr noundef %1, i64 noundef %2, i32 noundef %3) #0 {
  %5 = alloca i32, align 4
  %6 = alloca ptr, align 8
  %7 = alloca ptr, align 8
  %8 = alloca i64, align 8
  %9 = alloca i32, align 4
  %10 = alloca ptr, align 8
  %11 = alloca i64, align 8
  %12 = alloca i64, align 8
  %13 = alloca i64, align 8
  %14 = alloca i32, align 4
  %15 = alloca i64, align 8
  %16 = alloca i64, align 8
  store ptr %0, ptr %6, align 8, !tbaa !4
  store ptr %1, ptr %7, align 8, !tbaa !9
  store i64 %2, ptr %8, align 8, !tbaa !11
  store i32 %3, ptr %9, align 4, !tbaa !13
  call void @llvm.lifetime.start.p0(i64 8, ptr %10) #6
  store ptr null, ptr %10, align 8, !tbaa !15
  call void @llvm.lifetime.start.p0(i64 8, ptr %11) #6
  store i64 0, ptr %11, align 8, !tbaa !11
  call void @llvm.lifetime.start.p0(i64 8, ptr %12) #6
  store i64 0, ptr %12, align 8, !tbaa !11
  call void @llvm.lifetime.start.p0(i64 8, ptr %13) #6
  store i64 0, ptr %13, align 8, !tbaa !11
  br label %17

17:                                               ; preds = %63, %4
  %18 = load i64, ptr %13, align 8, !tbaa !11
  %19 = load i64, ptr %8, align 8, !tbaa !11
  %20 = icmp ult i64 %18, %19
  br i1 %20, label %22, label %21

21:                                               ; preds = %17
  store i32 2, ptr %14, align 4
  br label %66

22:                                               ; preds = %17
  call void @llvm.lifetime.start.p0(i64 8, ptr %15) #6
  %23 = load ptr, ptr %7, align 8, !tbaa !9
  %24 = load i64, ptr %13, align 8, !tbaa !11
  %25 = getelementptr inbounds nuw ptr, ptr %23, i64 %24
  %26 = load ptr, ptr %25, align 8, !tbaa !17
  %27 = call i64 @reftable_reader_min_update_index(ptr noundef %26)
  store i64 %27, ptr %15, align 8, !tbaa !11
  call void @llvm.lifetime.start.p0(i64 8, ptr %16) #6
  %28 = load ptr, ptr %7, align 8, !tbaa !9
  %29 = load i64, ptr %13, align 8, !tbaa !11
  %30 = getelementptr inbounds nuw ptr, ptr %28, i64 %29
  %31 = load ptr, ptr %30, align 8, !tbaa !17
  %32 = call i64 @reftable_reader_max_update_index(ptr noundef %31)
  store i64 %32, ptr %16, align 8, !tbaa !11
  %33 = load ptr, ptr %7, align 8, !tbaa !9
  %34 = load i64, ptr %13, align 8, !tbaa !11
  %35 = getelementptr inbounds nuw ptr, ptr %33, i64 %34
  %36 = load ptr, ptr %35, align 8, !tbaa !17
  %37 = call i32 @reftable_reader_hash_id(ptr noundef %36)
  %38 = load i32, ptr %9, align 4, !tbaa !13
  %39 = icmp ne i32 %37, %38
  br i1 %39, label %40, label %41

40:                                               ; preds = %22
  store i32 -3, ptr %5, align 4
  store i32 1, ptr %14, align 4
  br label %60

41:                                               ; preds = %22
  %42 = load i64, ptr %13, align 8, !tbaa !11
  %43 = icmp eq i64 %42, 0
  br i1 %43, label %48, label %44

44:                                               ; preds = %41
  %45 = load i64, ptr %15, align 8, !tbaa !11
  %46 = load i64, ptr %12, align 8, !tbaa !11
  %47 = icmp ult i64 %45, %46
  br i1 %47, label %48, label %50

48:                                               ; preds = %44, %41
  %49 = load i64, ptr %15, align 8, !tbaa !11
  store i64 %49, ptr %12, align 8, !tbaa !11
  br label %50

50:                                               ; preds = %48, %44
  %51 = load i64, ptr %13, align 8, !tbaa !11
  %52 = icmp eq i64 %51, 0
  br i1 %52, label %57, label %53

53:                                               ; preds = %50
  %54 = load i64, ptr %16, align 8, !tbaa !11
  %55 = load i64, ptr %11, align 8, !tbaa !11
  %56 = icmp ugt i64 %54, %55
  br i1 %56, label %57, label %59

57:                                               ; preds = %53, %50
  %58 = load i64, ptr %16, align 8, !tbaa !11
  store i64 %58, ptr %11, align 8, !tbaa !11
  br label %59

59:                                               ; preds = %57, %53
  store i32 0, ptr %14, align 4
  br label %60

60:                                               ; preds = %59, %40
  call void @llvm.lifetime.end.p0(i64 8, ptr %16) #6
  call void @llvm.lifetime.end.p0(i64 8, ptr %15) #6
  %61 = load i32, ptr %14, align 4
  switch i32 %61, label %66 [
    i32 0, label %62
  ]

62:                                               ; preds = %60
  br label %63

63:                                               ; preds = %62
  %64 = load i64, ptr %13, align 8, !tbaa !11
  %65 = add i64 %64, 1
  store i64 %65, ptr %13, align 8, !tbaa !11
  br label %17, !llvm.loop !19

66:                                               ; preds = %60, %21
  call void @llvm.lifetime.end.p0(i64 8, ptr %13) #6
  %67 = load i32, ptr %14, align 4
  switch i32 %67, label %91 [
    i32 2, label %68
  ]

68:                                               ; preds = %66
  %69 = call ptr @reftable_calloc(i64 noundef 1, i64 noundef 40)
  store ptr %69, ptr %10, align 8, !tbaa !15
  %70 = load ptr, ptr %10, align 8, !tbaa !15
  %71 = icmp ne ptr %70, null
  br i1 %71, label %73, label %72

72:                                               ; preds = %68
  store i32 -13, ptr %5, align 4
  store i32 1, ptr %14, align 4
  br label %91

73:                                               ; preds = %68
  %74 = load ptr, ptr %7, align 8, !tbaa !9
  %75 = load ptr, ptr %10, align 8, !tbaa !15
  %76 = getelementptr inbounds nuw %struct.reftable_merged_table, ptr %75, i32 0, i32 0
  store ptr %74, ptr %76, align 8, !tbaa !21
  %77 = load i64, ptr %8, align 8, !tbaa !11
  %78 = load ptr, ptr %10, align 8, !tbaa !15
  %79 = getelementptr inbounds nuw %struct.reftable_merged_table, ptr %78, i32 0, i32 1
  store i64 %77, ptr %79, align 8, !tbaa !23
  %80 = load i64, ptr %12, align 8, !tbaa !11
  %81 = load ptr, ptr %10, align 8, !tbaa !15
  %82 = getelementptr inbounds nuw %struct.reftable_merged_table, ptr %81, i32 0, i32 4
  store i64 %80, ptr %82, align 8, !tbaa !24
  %83 = load i64, ptr %11, align 8, !tbaa !11
  %84 = load ptr, ptr %10, align 8, !tbaa !15
  %85 = getelementptr inbounds nuw %struct.reftable_merged_table, ptr %84, i32 0, i32 5
  store i64 %83, ptr %85, align 8, !tbaa !25
  %86 = load i32, ptr %9, align 4, !tbaa !13
  %87 = load ptr, ptr %10, align 8, !tbaa !15
  %88 = getelementptr inbounds nuw %struct.reftable_merged_table, ptr %87, i32 0, i32 2
  store i32 %86, ptr %88, align 8, !tbaa !26
  %89 = load ptr, ptr %10, align 8, !tbaa !15
  %90 = load ptr, ptr %6, align 8, !tbaa !4
  store ptr %89, ptr %90, align 8, !tbaa !15
  store i32 0, ptr %5, align 4
  store i32 1, ptr %14, align 4
  br label %91

91:                                               ; preds = %73, %72, %66
  call void @llvm.lifetime.end.p0(i64 8, ptr %12) #6
  call void @llvm.lifetime.end.p0(i64 8, ptr %11) #6
  call void @llvm.lifetime.end.p0(i64 8, ptr %10) #6
  %92 = load i32, ptr %5, align 4
  ret i32 %92
}