; Function Attrs: nounwind uwtable
define dso_local range(i32 -13, 1) i32 @reftable_merged_table_new(ptr noundef writeonly captures(none) %0, ptr noundef %1, i64 noundef %2, i32 noundef %3) local_unnamed_addr #0 {
  %.not4658.not = icmp eq i64 %2, 0
  br i1 %.not4658.not, label %._crit_edge, label %.lr.ph

.lr.ph:                                           ; preds = %4, %12
  %.03661 = phi i64 [ %16, %12 ], [ 0, %4 ]
  %.03760 = phi i64 [ %.340, %12 ], [ 0, %4 ]
  %.04159 = phi i64 [ %.344, %12 ], [ 0, %4 ]
  %5 = getelementptr inbounds nuw ptr, ptr %1, i64 %.03661
  %6 = load ptr, ptr %5, align 8, !tbaa !4
  %7 = tail call i64 @reftable_reader_min_update_index(ptr noundef %6) #6
  %8 = load ptr, ptr %5, align 8, !tbaa !4
  %9 = tail call i64 @reftable_reader_max_update_index(ptr noundef %8) #6
  %10 = load ptr, ptr %5, align 8, !tbaa !4
  %11 = tail call i32 @reftable_reader_hash_id(ptr noundef %10) #6
  %.not = icmp eq i32 %11, %3
  br i1 %.not, label %12, label %.thread53

12:                                               ; preds = %.lr.ph
  %13 = icmp eq i64 %.03661, 0
  %14 = tail call i64 @llvm.umin.i64(i64 %7, i64 %.03760)
  %.340 = select i1 %13, i64 %7, i64 %14
  %15 = tail call i64 @llvm.umax.i64(i64 %9, i64 %.04159)
  %.344 = select i1 %13, i64 %9, i64 %15
  %16 = add nuw i64 %.03661, 1
  %exitcond.not = icmp eq i64 %16, %2
  br i1 %exitcond.not, label %._crit_edge, label %.lr.ph, !llvm.loop !9

._crit_edge:                                      ; preds = %12, %4
  %.041.lcssa = phi i64 [ 0, %4 ], [ %.344, %12 ]
  %.037.lcssa = phi i64 [ 0, %4 ], [ %.340, %12 ]
  %17 = tail call ptr @reftable_calloc(i64 noundef 1, i64 noundef 40) #6
  %.not47 = icmp eq ptr %17, null
  br i1 %.not47, label %.thread53, label %18

18:                                               ; preds = %._crit_edge
  store ptr %1, ptr %17, align 8, !tbaa !11
  %19 = getelementptr inbounds nuw i8, ptr %17, i64 8
  store i64 %2, ptr %19, align 8, !tbaa !16
  %20 = getelementptr inbounds nuw i8, ptr %17, i64 24
  store i64 %.037.lcssa, ptr %20, align 8, !tbaa !17
  %21 = getelementptr inbounds nuw i8, ptr %17, i64 32
  store i64 %.041.lcssa, ptr %21, align 8, !tbaa !18
  %22 = getelementptr inbounds nuw i8, ptr %17, i64 16
  store i32 %3, ptr %22, align 8, !tbaa !19
  store ptr %17, ptr %0, align 8, !tbaa !20
  br label %.thread53

.thread53:                                        ; preds = %.lr.ph, %._crit_edge, %18
  %.3 = phi i32 [ 0, %18 ], [ -13, %._crit_edge ], [ -3, %.lr.ph ]
  ret i32 %.3
}